(dp1
S'output'
p2
S"<class 'astropy.coordinates.errors.IllegalHourError'> An invalid value for 'hours' was found ('38.0'); must be in the range [0,24)."
p3
sS'layer'
p4
S'/Users/arseniykhmelidze/Documents/Documents/UCSC/CMPS 183/web2py/applications/polarisproject/controllers/default.py'
p5
sS'code'
p6
S'# -*- coding: utf-8 -*-\n# this file is released under public domain and you can use without limitations\n\n# -------------------------------------------------------------------------\n# This is a sample controller\n# - index is the default action of any application\n# - user is required for authentication and authorization\n# - download is for downloading files uploaded in the db (does streaming)\n# -------------------------------------------------------------------------\n\n@auth.requires_login()\ndef index():\n    """\n    example action using the internationalization operator T and flash\n    rendered by views/default/index.html or views/generic.html\n\n    if you need a simple wiki simply replace the two lines below with:\n    return auth.wiki()\n    """\n    #from astroquery.vizier import Vizier\n    #from astropy.coordinates import SkyCoord\n    #from astropy.coordinates import Angle\n    return dict()\n\ndef mag_key(catalog):\n    return {\n        \'NOMAD\': \'Vmag\',\n        \'UCAC\': \'Vmag\',\n        \'GSC\': \'Pmag\',\n        \'USNO-B1\': \'R1mag\',\n    }[catalog]\n\ndef test():\n    redirect(URL(\'default\', \'index\'))\n    response.flash = T(request.vars.name)\n    return dict(name=request.vars.name)\n\n\ndef onetime():\n    return dict();\n\n\ndef user():\n    """\n    exposes:\n    http://..../[app]/default/user/login\n    http://..../[app]/default/user/logout\n    http://..../[app]/default/user/register\n    http://..../[app]/default/user/profile\n    http://..../[app]/default/user/retrieve_password\n    http://..../[app]/default/user/change_password\n    http://..../[app]/default/user/bulk_register\n    use @auth.requires_login()\n        @auth.requires_membership(\'group name\')\n        @auth.requires_permission(\'read\',\'table name\',record_id)\n    to decorate functions that need access control\n    also notice there is http://..../[app]/appadmin/manage/auth to allow administrator to manage users\n    """\n\n    return dict(form=auth())\n\n\ndef celestial_target(ra, dec):\n    from astropy.coordinates import SkyCoord\n    coords = SkyCoord(ra, dec)\n    return coords\n\ndef find_guides(target, cat, rad):\n    from astroquery.vizier import Vizier\n    from astropy.coordinates import Angle\n    result = Vizier.query_region(target, radius=rad, catalog=cat)\n    dict = []\n    i = 0\n    if len(result) > 0:\n        print("find_guides: if len...:")\n        for row in (result[0]):\n            #create list with RA, DEC, mag values\n            col_list = {}\n            col_list[\'RA\'] = float(row[\'_RAJ2000\'])\n            col_list[\'DEC\'] = float(row[\'_DEJ2000\'])\n            #col_list[\'mag\'] = float(row[mag_key(cat)])#R1mag\n            if (row[\'R1mag\']) is not None:\n                col_list[\'mag\'] = float(row[\'R1mag\'])\n            elif (row[\'R2mag\']) is not None:\n                col_list[\'mag\'] = float(row[\'R2mag\'])\n            else:\n                col_list[\'mag\'] = \'-\'\n            dict.append(col_list)\n            i = i + 1\n    else:\n        print("find_guides: else: ")\n        col_list = {}\n        col_list[\'RA\'] = float(0)\n        col_list[\'DEC\'] = float(0)\n        col_list[\'mag\'] = float(0)\n        dict.append(col_list)\n    print(dict)\n    return dict\n\ndef search():\n    in_ra = request.vars.ra\n    in_dec = request.vars.dec\n    in_rad = request.vars.rad\n    #in_cat = request.vars.cat\n    in_cat = \'USNO-B1\' if (request.vars.cat) is None else (request.vars.cat)\n    in_cat = \'USNO-B1\'\n    #call function to get coordinates\n    cVega = celestial_target(in_ra, in_dec)\n    #call find_guides\n    call_dict = find_guides(cVega, in_cat, in_rad)\n\n    import json\n    json_str = json.dumps(call_dict)\n    return dict(json_dict=json_str, dict = call_dict, reqs=request.vars)\n\ndef save_query():\n    #in_ra = request.vars.ra\n    #in_dec = request.vars.dec\n    #in_rad = request.vars.rad\n    #\n    #form = SQLFORM(db.post).process()\n    ## Add controls\n    #form.add_button("Cancel", URL(\'default\', \'index\'))\n    ## If all-correct perform edit, redirect home\n    #if form.process().accepted:\n    #    session.flash = \'new record inserted\'\n    #    redirect(URL(\'default\', \'index\'))\n    #elif form.errors:\n    #    session.flash = T("Can\'t process those values.")\n    return\n\n@cache.action()\ndef download():\n    """\n    allows downloading of uploaded files\n    http://..../[app]/default/download/[filename]\n    """\n    return response.download(request, db)\n\n\n\n\ndef call():\n    """\n    exposes services. for example:\n    http://..../[app]/default/call/jsonrpc\n    decorate with @services.jsonrpc the functions to expose\n    supports xml, json, xmlrpc, jsonrpc, amfrpc, rss, csv\n    """\n    return service()\n\n\n\nresponse._vars=response._caller(search)\n'
p7
sS'snapshot'
p8
(dp9
sS'traceback'
p10
S'Traceback (most recent call last):\n  File "/Users/arseniykhmelidze/Documents/Documents/UCSC/CMPS 183/web2py/gluon/restricted.py", line 227, in restricted\n    exec ccode in environment\n  File "/Users/arseniykhmelidze/Documents/Documents/UCSC/CMPS 183/web2py/applications/polarisproject/controllers/default.py", line 154, in <module>\n  File "/Users/arseniykhmelidze/Documents/Documents/UCSC/CMPS 183/web2py/gluon/globals.py", line 417, in <lambda>\n    self._caller = lambda f: f()\n  File "/Users/arseniykhmelidze/Documents/Documents/UCSC/CMPS 183/web2py/applications/polarisproject/controllers/default.py", line 108, in search\n    cVega = celestial_target(in_ra, in_dec)\n  File "/Users/arseniykhmelidze/Documents/Documents/UCSC/CMPS 183/web2py/applications/polarisproject/controllers/default.py", line 65, in celestial_target\n    coords = SkyCoord(ra, dec)\n  File "//anaconda/lib/python2.7/site-packages/astropy/coordinates/sky_coordinate.py", line 196, in __init__\n    kwargs = self._parse_inputs(args, kwargs)\n  File "//anaconda/lib/python2.7/site-packages/astropy/coordinates/sky_coordinate.py", line 309, in _parse_inputs\n    coord_kwargs[frame_attr_name] = attr_class(arg, unit=unit)\n  File "//anaconda/lib/python2.7/site-packages/astropy/coordinates/angles.py", line 531, in __new__\n    self = super(Latitude, cls).__new__(cls, angle, unit=unit, **kwargs)\n  File "//anaconda/lib/python2.7/site-packages/astropy/coordinates/angles.py", line 114, in __new__\n    angle = cls._tuple_to_float(angle, unit)\n  File "//anaconda/lib/python2.7/site-packages/astropy/coordinates/angles.py", line 148, in _tuple_to_float\n    angle = util.hms_to_hours(*angle)\n  File "//anaconda/lib/python2.7/site-packages/astropy/coordinates/angle_utilities.py", line 397, in hms_to_hours\n    check_hms_ranges(h, m, s)\n  File "//anaconda/lib/python2.7/site-packages/astropy/coordinates/angle_utilities.py", line 311, in check_hms_ranges\n    _check_hour_range(h)\n  File "//anaconda/lib/python2.7/site-packages/astropy/coordinates/angle_utilities.py", line 277, in _check_hour_range\n    raise IllegalHourError(hrs)\nIllegalHourError: An invalid value for \'hours\' was found (\'38.0\'); must be in the range [0,24).\n'
p11
s.